target datalayout = "e-m:e-p270:32:32-p271:32:32-p272:64:64-i64:64-i128:128-f80:128-n8:16:32:64-S128"
target triple = "x86_64-pc-linux-gnu"

%struct.key2any_ctx_st = type { ptr, i32, i32, ptr, ptr, ptr }

@.str.2 = private unnamed_addr constant [31 x i8] c"../openssl/test/tls-provider.c\00", align 1

; Function Attrs: nounwind uwtable
define internal ptr @key2any_newctx(ptr noundef %0) #0 {
  %2 = alloca ptr, align 8
  %3 = alloca ptr, align 8
  store ptr %0, ptr %2, align 8, !tbaa !13
  call void @llvm.lifetime.start.p0(i64 8, ptr %3) #8
  %4 = call noalias ptr @CRYPTO_zalloc(i64 noundef 40, ptr noundef @.str.2, i32 noundef 1732)
  store ptr %4, ptr %3, align 8, !tbaa !71
  %5 = load ptr, ptr %3, align 8, !tbaa !71
  %6 = icmp ne ptr %5, null
  br i1 %6, label %7, label %13

7:                                                ; preds = %1
  %8 = load ptr, ptr %2, align 8, !tbaa !13
  %9 = load ptr, ptr %3, align 8, !tbaa !71
  %10 = getelementptr inbounds nuw %struct.key2any_ctx_st, ptr %9, i32 0, i32 0
  store ptr %8, ptr %10, align 8, !tbaa !73
  %11 = load ptr, ptr %3, align 8, !tbaa !71
  %12 = getelementptr inbounds nuw %struct.key2any_ctx_st, ptr %11, i32 0, i32 1
  store i32 1, ptr %12, align 8, !tbaa !76
  br label %13

13:                                               ; preds = %7, %1
  %14 = load ptr, ptr %3, align 8, !tbaa !71
  call void @llvm.lifetime.end.p0(i64 8, ptr %3) #8
  ret ptr %14
}