; Function Attrs: nounwind uwtable
define internal noalias ptr @key2any_newctx(ptr noundef %0) #0 {
  %2 = tail call noalias ptr @CRYPTO_zalloc(i64 noundef 40, ptr noundef nonnull @.str.2, i32 noundef 1732) #16
  %.not = icmp eq ptr %2, null
  br i1 %.not, label %5, label %3

3:                                                ; preds = %1
  store ptr %0, ptr %2, align 8, !tbaa !58
  %4 = getelementptr inbounds nuw i8, ptr %2, i64 8
  store i32 1, ptr %4, align 8, !tbaa !61
  br label %5

5:                                                ; preds = %3, %1
  ret ptr %2
}